target datalayout = "e-m:e-p270:32:32-p271:32:32-p272:64:64-i64:64-i128:128-f80:128-n8:16:32:64-S128"
target triple = "x86_64-pc-linux-gnu"

%"class.zxing::qrcode::FinderPatternInfo" = type { %"class.zxing::Counted.base", %"class.zxing::Ref", %"class.zxing::Ref", %"class.zxing::Ref", float, float }
%"class.zxing::Counted.base" = type <{ ptr, i32 }>
%"class.zxing::Ref" = type { ptr }
%"class.zxing::Counted" = type <{ ptr, i32, [4 x i8] }>

; Function Attrs: mustprogress nounwind uwtable
define linkonce_odr hidden void @_ZN5zxing7Counted7releaseEv(ptr noundef nonnull align 8 dereferenceable(12) %0) #1 comdat align 2 {
  %2 = alloca ptr, align 8
  store ptr %0, ptr %2, align 8, !tbaa !19
  %3 = load ptr, ptr %2, align 8
  %4 = getelementptr inbounds nuw %"class.zxing::Counted", ptr %3, i32 0, i32 1
  %5 = load i32, ptr %4, align 8, !tbaa !21
  %6 = add i32 %5, -1
  store i32 %6, ptr %4, align 8, !tbaa !21
  %7 = getelementptr inbounds nuw %"class.zxing::Counted", ptr %3, i32 0, i32 1
  %8 = load i32, ptr %7, align 8, !tbaa !21
  %9 = icmp eq i32 %8, 0
  br i1 %9, label %10, label %18

10:                                               ; preds = %1
  %11 = getelementptr inbounds nuw %"class.zxing::Counted", ptr %3, i32 0, i32 1
  store i32 -559026175, ptr %11, align 8, !tbaa !21
  %12 = icmp eq ptr %3, null
  br i1 %12, label %17, label %13

13:                                               ; preds = %10
  %14 = load ptr, ptr %3, align 8, !tbaa !10
  %15 = getelementptr inbounds ptr, ptr %14, i64 1
  %16 = load ptr, ptr %15, align 8
  call void %16(ptr noundef nonnull align 8 dereferenceable(12) %3) #8
  br label %17

17:                                               ; preds = %13, %10
  br label %18

18:                                               ; preds = %17, %1
  ret void
}

; Function Attrs: mustprogress nounwind uwtable
define linkonce_odr hidden noundef ptr @_ZN5zxing7Counted6retainEv(ptr noundef nonnull align 8 dereferenceable(12) %0) #1 comdat align 2 {
  %2 = alloca ptr, align 8
  store ptr %0, ptr %2, align 8, !tbaa !19
  %3 = load ptr, ptr %2, align 8
  %4 = getelementptr inbounds nuw %"class.zxing::Counted", ptr %3, i32 0, i32 1
  %5 = load i32, ptr %4, align 8, !tbaa !21
  %6 = add i32 %5, 1
  store i32 %6, ptr %4, align 8, !tbaa !21
  ret ptr %3
}

; Function Attrs: mustprogress uwtable
define linkonce_odr hidden void @_ZN5zxing3RefINS_6qrcode13FinderPatternEE5resetEPS2_(ptr noundef nonnull align 8 dereferenceable(8) %0, ptr noundef %1) #0 comdat align 2 {
  %3 = alloca ptr, align 8
  %4 = alloca ptr, align 8
  store ptr %0, ptr %3, align 8, !tbaa !27
  store ptr %1, ptr %4, align 8, !tbaa !36
  %5 = load ptr, ptr %3, align 8
  %6 = load ptr, ptr %4, align 8, !tbaa !36
  %7 = icmp ne ptr %6, null
  br i1 %7, label %8, label %11

8:                                                ; preds = %2
  %9 = load ptr, ptr %4, align 8, !tbaa !36
  %10 = call noundef ptr @_ZN5zxing7Counted6retainEv(ptr noundef nonnull align 8 dereferenceable(12) %9)
  br label %11

11:                                               ; preds = %8, %2
  %12 = getelementptr inbounds nuw %"class.zxing::Ref", ptr %5, i32 0, i32 0
  %13 = load ptr, ptr %12, align 8, !tbaa !28
  %14 = icmp ne ptr %13, null
  br i1 %14, label %15, label %18

15:                                               ; preds = %11
  %16 = getelementptr inbounds nuw %"class.zxing::Ref", ptr %5, i32 0, i32 0
  %17 = load ptr, ptr %16, align 8, !tbaa !28
  call void @_ZN5zxing7Counted7releaseEv(ptr noundef nonnull align 8 dereferenceable(12) %17)
  br label %18

18:                                               ; preds = %15, %11
  %19 = load ptr, ptr %4, align 8, !tbaa !36
  %20 = getelementptr inbounds nuw %"class.zxing::Ref", ptr %5, i32 0, i32 0
  store ptr %19, ptr %20, align 8, !tbaa !28
  ret void
}

; Function Attrs: mustprogress uwtable
define linkonce_odr hidden void @_ZN5zxing3RefINS_6qrcode13FinderPatternEEC2ERKS3_(ptr noundef nonnull align 8 dereferenceable(8) %0, ptr noundef nonnull align 8 dereferenceable(8) %1) unnamed_addr #0 comdat align 2 {
  %3 = alloca ptr, align 8
  %4 = alloca ptr, align 8
  store ptr %0, ptr %3, align 8, !tbaa !27
  store ptr %1, ptr %4, align 8, !tbaa !27
  %5 = load ptr, ptr %3, align 8
  %6 = getelementptr inbounds nuw %"class.zxing::Ref", ptr %5, i32 0, i32 0
  store ptr null, ptr %6, align 8, !tbaa !28
  %7 = load ptr, ptr %4, align 8, !tbaa !27
  %8 = getelementptr inbounds nuw %"class.zxing::Ref", ptr %7, i32 0, i32 0
  %9 = load ptr, ptr %8, align 8, !tbaa !28
  call void @_ZN5zxing3RefINS_6qrcode13FinderPatternEE5resetEPS2_(ptr noundef nonnull align 8 dereferenceable(8) %5, ptr noundef %9)
  ret void
}

; Function Attrs: mustprogress uwtable
define hidden void @_ZN5zxing6qrcode17FinderPatternInfo11getTopRightEv(ptr dead_on_unwind noalias writable sret(%"class.zxing::Ref") align 8 %0, ptr noundef nonnull align 8 dereferenceable(48) %1) #0 align 2 {
  %3 = alloca ptr, align 8
  %4 = alloca ptr, align 8
  store ptr %0, ptr %3, align 8
  store ptr %1, ptr %4, align 8, !tbaa !3
  %5 = load ptr, ptr %4, align 8
  %6 = getelementptr inbounds nuw %"class.zxing::qrcode::FinderPatternInfo", ptr %5, i32 0, i32 3
  call void @_ZN5zxing3RefINS_6qrcode13FinderPatternEEC2ERKS3_(ptr noundef nonnull align 8 dereferenceable(8) %0, ptr noundef nonnull align 8 dereferenceable(8) %6)
  ret void
}