; Function Attrs: mustprogress nofree norecurse nosync nounwind willreturn memory(readwrite, inaccessiblemem: none) uwtable
define hidden void @_ZN5zxing6qrcode17FinderPatternInfo11getTopRightEv(ptr dead_on_unwind noalias writable writeonly sret(%"class.zxing::Ref") align 8 captures(none) initializes((0, 8)) %0, ptr noundef nonnull readonly align 8 captures(none) dereferenceable(48) %1) local_unnamed_addr #1 align 2 {
  %3 = getelementptr inbounds nuw i8, ptr %1, i64 32
  %4 = load ptr, ptr %3, align 8, !tbaa !14
  %.not.i.i = icmp eq ptr %4, null
  br i1 %.not.i.i, label %_ZN5zxing3RefINS_6qrcode13FinderPatternEEC2ERKS3_.exit, label %5

5:                                                ; preds = %2
  %6 = getelementptr inbounds nuw i8, ptr %4, i64 8
  %7 = load i32, ptr %6, align 8, !tbaa !3
  %8 = add i32 %7, 1
  store i32 %8, ptr %6, align 8, !tbaa !3
  br label %_ZN5zxing3RefINS_6qrcode13FinderPatternEEC2ERKS3_.exit

_ZN5zxing3RefINS_6qrcode13FinderPatternEEC2ERKS3_.exit: ; preds = %2, %5
  store ptr %4, ptr %0, align 8, !tbaa !14
  ret void
}